target datalayout = "e-m:e-p270:32:32-p271:32:32-p272:64:64-i64:64-i128:128-f80:128-n8:16:32:64-S128"
target triple = "x86_64-pc-linux-gnu"

%struct.ZSTD_customMem = type { ptr, ptr, ptr }
%struct.ZSTD_DCtx_s = type { ptr, ptr, ptr, ptr, %struct.ZSTD_entropyDTables_t, [640 x i32], ptr, ptr, ptr, ptr, i64, %struct.ZSTD_FrameHeader, i64, i64, i32, i32, i32, i32, %struct.XXH64_state_s, i64, i32, i32, i32, ptr, %struct.ZSTD_customMem, i64, i64, i64, i32, i32, ptr, ptr, i32, i32, i32, ptr, i32, i32, i32, i32, ptr, i64, i64, i64, ptr, i64, i64, i64, i64, ptr, i32, i32, i32, i32, i32, %struct.ZSTD_outBuffer_s, ptr, ptr, i32, [65568 x i8], [18 x i8], i64, i64 }
%struct.ZSTD_entropyDTables_t = type { [513 x %struct.ZSTD_seqSymbol], [257 x %struct.ZSTD_seqSymbol], [513 x %struct.ZSTD_seqSymbol], [4097 x i32], [3 x i32], [157 x i32] }
%struct.ZSTD_seqSymbol = type { i16, i8, i8, i32 }
%struct.ZSTD_FrameHeader = type { i64, i64, i32, i32, i32, i32, i32, i32, i32 }
%struct.XXH64_state_s = type { i64, [4 x i64], [4 x i64], i32, i32, i64 }
%struct.ZSTD_outBuffer_s = type { ptr, i64, i64 }

; Function Attrs: nounwind uwtable
define internal void @ZSTD_clearDict(ptr noundef %0) #0 {
  %2 = alloca ptr, align 8
  store ptr %0, ptr %2, align 8, !tbaa !3
  %3 = load ptr, ptr %2, align 8, !tbaa !3
  %4 = getelementptr inbounds nuw %struct.ZSTD_DCtx_s, ptr %3, i32 0, i32 30
  %5 = load ptr, ptr %4, align 8, !tbaa !8
  %6 = call i64 @ZSTD_freeDDict(ptr noundef %5)
  %7 = load ptr, ptr %2, align 8, !tbaa !3
  %8 = getelementptr inbounds nuw %struct.ZSTD_DCtx_s, ptr %7, i32 0, i32 30
  store ptr null, ptr %8, align 8, !tbaa !8
  %9 = load ptr, ptr %2, align 8, !tbaa !3
  %10 = getelementptr inbounds nuw %struct.ZSTD_DCtx_s, ptr %9, i32 0, i32 31
  store ptr null, ptr %10, align 8, !tbaa !27
  %11 = load ptr, ptr %2, align 8, !tbaa !3
  %12 = getelementptr inbounds nuw %struct.ZSTD_DCtx_s, ptr %11, i32 0, i32 34
  store i32 0, ptr %12, align 8, !tbaa !30
  ret void
}

; Function Attrs: nounwind uwtable
define i64 @ZSTD_DCtx_loadDictionary_advanced(ptr noundef %0, ptr noundef %1, i64 noundef %2, i32 noundef %3, i32 noundef %4) #0 {
  %6 = alloca i64, align 8
  %7 = alloca ptr, align 8
  %8 = alloca ptr, align 8
  %9 = alloca i64, align 8
  %10 = alloca i32, align 4
  %11 = alloca i32, align 4
  store ptr %0, ptr %7, align 8, !tbaa !3
  store ptr %1, ptr %8, align 8, !tbaa !23
  store i64 %2, ptr %9, align 8, !tbaa !24
  store i32 %3, ptr %10, align 4, !tbaa !43
  store i32 %4, ptr %11, align 4, !tbaa !43
  br label %12

12:                                               ; preds = %5
  %13 = load ptr, ptr %7, align 8, !tbaa !3
  %14 = getelementptr inbounds nuw %struct.ZSTD_DCtx_s, ptr %13, i32 0, i32 39
  %15 = load i32, ptr %14, align 4, !tbaa !31
  %16 = icmp ne i32 %15, 0
  br i1 %16, label %17, label %26

17:                                               ; preds = %12
  br label %18

18:                                               ; preds = %17
  br label %19

19:                                               ; preds = %18
  br label %20

20:                                               ; preds = %19
  br label %21

21:                                               ; preds = %20
  br label %22

22:                                               ; preds = %21
  br label %23

23:                                               ; preds = %22
  br label %24

24:                                               ; preds = %23
  br label %25

25:                                               ; preds = %24
  store i64 -60, ptr %6, align 8
  br label %68

26:                                               ; preds = %12
  br label %27

27:                                               ; preds = %26
  %28 = load ptr, ptr %7, align 8, !tbaa !3
  call void @ZSTD_clearDict(ptr noundef %28)
  %29 = load ptr, ptr %8, align 8, !tbaa !23
  %30 = icmp ne ptr %29, null
  br i1 %30, label %31, label %67

31:                                               ; preds = %27
  %32 = load i64, ptr %9, align 8, !tbaa !24
  %33 = icmp ne i64 %32, 0
  br i1 %33, label %34, label %67

34:                                               ; preds = %31
  %35 = load ptr, ptr %8, align 8, !tbaa !23
  %36 = load i64, ptr %9, align 8, !tbaa !24
  %37 = load i32, ptr %10, align 4, !tbaa !43
  %38 = load i32, ptr %11, align 4, !tbaa !43
  %39 = load ptr, ptr %7, align 8, !tbaa !3
  %40 = getelementptr inbounds nuw %struct.ZSTD_DCtx_s, ptr %39, i32 0, i32 24
  %41 = call ptr @ZSTD_createDDict_advanced(ptr noundef %35, i64 noundef %36, i32 noundef %37, i32 noundef %38, ptr noundef byval(%struct.ZSTD_customMem) align 8 %40)
  %42 = load ptr, ptr %7, align 8, !tbaa !3
  %43 = getelementptr inbounds nuw %struct.ZSTD_DCtx_s, ptr %42, i32 0, i32 30
  store ptr %41, ptr %43, align 8, !tbaa !8
  br label %44

44:                                               ; preds = %34
  %45 = load ptr, ptr %7, align 8, !tbaa !3
  %46 = getelementptr inbounds nuw %struct.ZSTD_DCtx_s, ptr %45, i32 0, i32 30
  %47 = load ptr, ptr %46, align 8, !tbaa !8
  %48 = icmp eq ptr %47, null
  br i1 %48, label %49, label %58

49:                                               ; preds = %44
  br label %50

50:                                               ; preds = %49
  br label %51

51:                                               ; preds = %50
  br label %52

52:                                               ; preds = %51
  br label %53

53:                                               ; preds = %52
  br label %54

54:                                               ; preds = %53
  br label %55

55:                                               ; preds = %54
  br label %56

56:                                               ; preds = %55
  br label %57

57:                                               ; preds = %56
  store i64 -64, ptr %6, align 8
  br label %68

58:                                               ; preds = %44
  br label %59

59:                                               ; preds = %58
  %60 = load ptr, ptr %7, align 8, !tbaa !3
  %61 = getelementptr inbounds nuw %struct.ZSTD_DCtx_s, ptr %60, i32 0, i32 30
  %62 = load ptr, ptr %61, align 8, !tbaa !8
  %63 = load ptr, ptr %7, align 8, !tbaa !3
  %64 = getelementptr inbounds nuw %struct.ZSTD_DCtx_s, ptr %63, i32 0, i32 31
  store ptr %62, ptr %64, align 8, !tbaa !27
  %65 = load ptr, ptr %7, align 8, !tbaa !3
  %66 = getelementptr inbounds nuw %struct.ZSTD_DCtx_s, ptr %65, i32 0, i32 34
  store i32 -1, ptr %66, align 8, !tbaa !30
  br label %67

67:                                               ; preds = %59, %31, %27
  store i64 0, ptr %6, align 8
  br label %68

68:                                               ; preds = %67, %57, %25
  %69 = load i64, ptr %6, align 8
  ret i64 %69
}

; Function Attrs: nounwind uwtable
define i64 @ZSTD_DCtx_loadDictionary_byReference(ptr noundef %0, ptr noundef %1, i64 noundef %2) #0 {
  %4 = alloca ptr, align 8
  %5 = alloca ptr, align 8
  %6 = alloca i64, align 8
  store ptr %0, ptr %4, align 8, !tbaa !3
  store ptr %1, ptr %5, align 8, !tbaa !23
  store i64 %2, ptr %6, align 8, !tbaa !24
  %7 = load ptr, ptr %4, align 8, !tbaa !3
  %8 = load ptr, ptr %5, align 8, !tbaa !23
  %9 = load i64, ptr %6, align 8, !tbaa !24
  %10 = call i64 @ZSTD_DCtx_loadDictionary_advanced(ptr noundef %7, ptr noundef %8, i64 noundef %9, i32 noundef 1, i32 noundef 0)
  ret i64 %10
}